target datalayout = "e-m:e-p270:32:32-p271:32:32-p272:64:64-i64:64-f80:128-n8:16:32:64-S128"
target triple = "x86_64-pc-linux-gnu"

@.str = private unnamed_addr constant [3 x i8] c"%d\00", align 1
@.str.1 = private unnamed_addr constant [6 x i8] c"%d %d\00", align 1
@.str.2 = private unnamed_addr constant [4 x i8] c"%d\0A\00", align 1

; Function Attrs: noinline nounwind uwtable
define dso_local i32 @main() #0 {
  %1 = alloca i32, align 4
  %2 = alloca i32*, align 8
  %3 = alloca i32, align 4
  %4 = alloca i32, align 4
  %5 = alloca i32, align 4
  %6 = alloca i32, align 4
  %7 = alloca i32, align 4
  %8 = alloca i32, align 4
  store i32 0, i32* %1, align 4
  %9 = call i32 (i8*, ...) @__isoc99_scanf(i8* getelementptr inbounds ([3 x i8], [3 x i8]* @.str, i64 0, i64 0), i32* %7)
  store i32 0, i32* %8, align 4
  br label %10

10:                                               ; preds = %130, %0
  %11 = load i32, i32* %8, align 4
  %12 = load i32, i32* %7, align 4
  %13 = icmp slt i32 %11, %12
  br i1 %13, label %14, label %133

14:                                               ; preds = %10
  %15 = call i32 (i8*, ...) @__isoc99_scanf(i8* getelementptr inbounds ([6 x i8], [6 x i8]* @.str.1, i64 0, i64 0), i32* %5, i32* %6)
  %16 = load i32, i32* %5, align 4
  %17 = load i32, i32* %6, align 4
  %18 = mul nsw i32 %16, %17
  %19 = sext i32 %18 to i64
  %20 = call noalias i8* @calloc(i64 %19, i64 4) #3
  %21 = bitcast i8* %20 to i32*
  store i32* %21, i32** %2, align 8
  store i32 0, i32* %3, align 4
  br label %22

22:                                               ; preds = %34, %14
  %23 = load i32, i32* %3, align 4
  %24 = load i32, i32* %5, align 4
  %25 = load i32, i32* %6, align 4
  %26 = mul nsw i32 %24, %25
  %27 = icmp slt i32 %23, %26
  br i1 %27, label %28, label %37

28:                                               ; preds = %22
  %29 = load i32*, i32** %2, align 8
  %30 = load i32, i32* %3, align 4
  %31 = sext i32 %30 to i64
  %32 = getelementptr inbounds i32, i32* %29, i64 %31
  %33 = call i32 (i8*, ...) @__isoc99_scanf(i8* getelementptr inbounds ([3 x i8], [3 x i8]* @.str, i64 0, i64 0), i32* %32)
  br label %34

34:                                               ; preds = %28
  %35 = load i32, i32* %3, align 4
  %36 = add nsw i32 %35, 1
  store i32 %36, i32* %3, align 4
  br label %22

37:                                               ; preds = %22
  store i32 0, i32* %4, align 4
  store i32 0, i32* %3, align 4
  br label %38

38:                                               ; preds = %50, %37
  %39 = load i32, i32* %3, align 4
  %40 = load i32, i32* %6, align 4
  %41 = icmp slt i32 %39, %40
  br i1 %41, label %42, label %53

42:                                               ; preds = %38
  %43 = load i32*, i32** %2, align 8
  %44 = load i32, i32* %3, align 4
  %45 = sext i32 %44 to i64
  %46 = getelementptr inbounds i32, i32* %43, i64 %45
  %47 = load i32, i32* %46, align 4
  %48 = load i32, i32* %4, align 4
  %49 = add nsw i32 %48, %47
  store i32 %49, i32* %4, align 4
  br label %50

50:                                               ; preds = %42
  %51 = load i32, i32* %3, align 4
  %52 = add nsw i32 %51, 1
  store i32 %52, i32* %3, align 4
  br label %38

53:                                               ; preds = %38
  %54 = load i32, i32* %5, align 4
  %55 = icmp sgt i32 %54, 1
  br i1 %55, label %56, label %79

56:                                               ; preds = %53
  store i32 0, i32* %3, align 4
  br label %57

57:                                               ; preds = %75, %56
  %58 = load i32, i32* %3, align 4
  %59 = load i32, i32* %6, align 4
  %60 = icmp slt i32 %58, %59
  br i1 %60, label %61, label %78

61:                                               ; preds = %57
  %62 = load i32*, i32** %2, align 8
  %63 = load i32, i32* %3, align 4
  %64 = sext i32 %63 to i64
  %65 = getelementptr inbounds i32, i32* %62, i64 %64
  %66 = load i32, i32* %5, align 4
  %67 = sub nsw i32 %66, 1
  %68 = load i32, i32* %6, align 4
  %69 = mul nsw i32 %67, %68
  %70 = sext i32 %69 to i64
  %71 = getelementptr inbounds i32, i32* %65, i64 %70
  %72 = load i32, i32* %71, align 4
  %73 = load i32, i32* %4, align 4
  %74 = add nsw i32 %73, %72
  store i32 %74, i32* %4, align 4
  br label %75

75:                                               ; preds = %61
  %76 = load i32, i32* %3, align 4
  %77 = add nsw i32 %76, 1
  store i32 %77, i32* %3, align 4
  br label %57

78:                                               ; preds = %57
  br label %79

79:                                               ; preds = %78, %53
  store i32 2, i32* %3, align 4
  br label %80

80:                                               ; preds = %95, %79
  %81 = load i32, i32* %3, align 4
  %82 = load i32, i32* %5, align 4
  %83 = icmp slt i32 %81, %82
  br i1 %83, label %84, label %98

84:                                               ; preds = %80
  %85 = load i32*, i32** %2, align 8
  %86 = load i32, i32* %3, align 4
  %87 = sub nsw i32 %86, 1
  %88 = load i32, i32* %6, align 4
  %89 = mul nsw i32 %87, %88
  %90 = sext i32 %89 to i64
  %91 = getelementptr inbounds i32, i32* %85, i64 %90
  %92 = load i32, i32* %91, align 4
  %93 = load i32, i32* %4, align 4
  %94 = add nsw i32 %93, %92
  store i32 %94, i32* %4, align 4
  br label %95

95:                                               ; preds = %84
  %96 = load i32, i32* %3, align 4
  %97 = add nsw i32 %96, 1
  store i32 %97, i32* %3, align 4
  br label %80

98:                                               ; preds = %80
  %99 = load i32, i32* %6, align 4
  %100 = icmp sgt i32 %99, 1
  br i1 %100, label %101, label %125

101:                                              ; preds = %98
  store i32 2, i32* %3, align 4
  br label %102

102:                                              ; preds = %121, %101
  %103 = load i32, i32* %3, align 4
  %104 = load i32, i32* %5, align 4
  %105 = icmp slt i32 %103, %104
  br i1 %105, label %106, label %124

106:                                              ; preds = %102
  %107 = load i32*, i32** %2, align 8
  %108 = load i32, i32* %6, align 4
  %109 = sext i32 %108 to i64
  %110 = getelementptr inbounds i32, i32* %107, i64 %109
  %111 = getelementptr inbounds i32, i32* %110, i64 -1
  %112 = load i32, i32* %3, align 4
  %113 = sub nsw i32 %112, 1
  %114 = load i32, i32* %6, align 4
  %115 = mul nsw i32 %113, %114
  %116 = sext i32 %115 to i64
  %117 = getelementptr inbounds i32, i32* %111, i64 %116
  %118 = load i32, i32* %117, align 4
  %119 = load i32, i32* %4, align 4
  %120 = add nsw i32 %119, %118
  store i32 %120, i32* %4, align 4
  br label %121

121:                                              ; preds = %106
  %122 = load i32, i32* %3, align 4
  %123 = add nsw i32 %122, 1
  store i32 %123, i32* %3, align 4
  br label %102

124:                                              ; preds = %102
  br label %125

125:                                              ; preds = %124, %98
  %126 = load i32, i32* %4, align 4
  %127 = call i32 (i8*, ...) @printf(i8* getelementptr inbounds ([4 x i8], [4 x i8]* @.str.2, i64 0, i64 0), i32 %126)
  %128 = load i32*, i32** %2, align 8
  %129 = bitcast i32* %128 to i8*
  call void @free(i8* %129) #3
  br label %130

130:                                              ; preds = %125
  %131 = load i32, i32* %8, align 4
  %132 = add nsw i32 %131, 1
  store i32 %132, i32* %8, align 4
  br label %10

133:                                              ; preds = %10
  %134 = load i32, i32* %1, align 4
  ret i32 %134
}